; ModuleID = '43/183.c'
source_filename = "43/183.c"
target datalayout = "e-m:e-p270:32:32-p271:32:32-p272:64:64-i64:64-f80:128-n8:16:32:64-S128"
target triple = "x86_64-pc-linux-gnu"

@.str = private unnamed_addr constant [4 x i8] c"%d\0A\00", align 1
@.str.1 = private unnamed_addr constant [7 x i8] c"%d %d\0A\00", align 1

; Function Attrs: noinline nounwind uwtable
define dso_local i32 @prime(i32 %0) #0 {
  %2 = alloca i32, align 4
  %3 = alloca i32, align 4
  %4 = alloca i32, align 4
  %5 = alloca i32, align 4
  store i32 %0, i32* %3, align 4
  %6 = load i32, i32* %3, align 4
  %7 = sitofp i32 %6 to double
  %8 = call double @sqrt(double %7) #3
  %9 = fptosi double %8 to i32
  store i32 %9, i32* %5, align 4
  store i32 2, i32* %4, align 4
  br label %10

10:                                               ; preds = %21, %1
  %11 = load i32, i32* %4, align 4
  %12 = load i32, i32* %5, align 4
  %13 = icmp sle i32 %11, %12
  br i1 %13, label %14, label %24

14:                                               ; preds = %10
  %15 = load i32, i32* %3, align 4
  %16 = load i32, i32* %4, align 4
  %17 = srem i32 %15, %16
  %18 = icmp eq i32 %17, 0
  br i1 %18, label %19, label %20

19:                                               ; preds = %14
  br label %24

20:                                               ; preds = %14
  br label %21

21:                                               ; preds = %20
  %22 = load i32, i32* %4, align 4
  %23 = add nsw i32 %22, 1
  store i32 %23, i32* %4, align 4
  br label %10

24:                                               ; preds = %19, %10
  %25 = load i32, i32* %4, align 4
  %26 = load i32, i32* %5, align 4
  %27 = icmp sgt i32 %25, %26
  br i1 %27, label %28, label %29

28:                                               ; preds = %24
  store i32 1, i32* %2, align 4
  br label %30

29:                                               ; preds = %24
  store i32 0, i32* %2, align 4
  br label %30

30:                                               ; preds = %29, %28
  %31 = load i32, i32* %2, align 4
  ret i32 %31
}

; Function Attrs: nounwind
declare dso_local double @sqrt(double) #1

; Function Attrs: noinline nounwind uwtable
define dso_local i32 @main() #0 {
  %1 = alloca i32, align 4
  %2 = alloca i32, align 4
  %3 = alloca i32, align 4
  %4 = alloca i32, align 4
  %5 = alloca i32, align 4
  store i32 0, i32* %1, align 4
  %6 = call i32 (i8*, ...) @__isoc99_scanf(i8* getelementptr inbounds ([4 x i8], [4 x i8]* @.str, i64 0, i64 0), i32* %2)
  store i32 3, i32* %3, align 4
  br label %7

7:                                                ; preds = %29, %0
  %8 = load i32, i32* %3, align 4
  %9 = load i32, i32* %2, align 4
  %10 = sdiv i32 %9, 2
  %11 = icmp sle i32 %8, %10
  br i1 %11, label %12, label %32

12:                                               ; preds = %7
  %13 = load i32, i32* %3, align 4
  store i32 %13, i32* %4, align 4
  %14 = load i32, i32* %2, align 4
  %15 = load i32, i32* %3, align 4
  %16 = sub nsw i32 %14, %15
  store i32 %16, i32* %5, align 4
  %17 = load i32, i32* %4, align 4
  %18 = call i32 @prime(i32 %17)
  %19 = icmp eq i32 %18, 1
  br i1 %19, label %20, label %28

20:                                               ; preds = %12
  %21 = load i32, i32* %5, align 4
  %22 = call i32 @prime(i32 %21)
  %23 = icmp eq i32 %22, 1
  br i1 %23, label %24, label %28

24:                                               ; preds = %20
  %25 = load i32, i32* %4, align 4
  %26 = load i32, i32* %5, align 4
  %27 = call i32 (i8*, ...) @printf(i8* getelementptr inbounds ([7 x i8], [7 x i8]* @.str.1, i64 0, i64 0), i32 %25, i32 %26)
  br label %28

28:                                               ; preds = %24, %20, %12
  br label %29

29:                                               ; preds = %28
  %30 = load i32, i32* %3, align 4
  %31 = add nsw i32 %30, 1
  store i32 %31, i32* %3, align 4
  br label %7

32:                                               ; preds = %7
  ret i32 0
}

declare dso_local i32 @__isoc99_scanf(i8*, ...) #2

declare dso_local i32 @printf(i8*, ...) #2


!llvm.module.flags = !{!0}
!llvm.ident = !{!1}

!0 = !{i32 1, !"wchar_size", i32 4}
!1 = !{!"clang version 10.0.0-4ubuntu1 "}
